; Function Attrs: mustprogress uwtable
define hidden void @_ZN7datalog12boogie_proof9set_modelEP5model(ptr nocapture noundef nonnull align 8 dereferenceable(32) %this, ptr noundef %m) local_unnamed_addr #3 align 2 {
entry:
  %m_model = getelementptr inbounds i8, ptr %this, i64 24
  %tobool.not.i = icmp eq ptr %m, null
  br i1 %tobool.not.i, label %if.end.i, label %if.then.i

if.then.i:                                        ; preds = %entry
  %m_ref_count.i.i = getelementptr inbounds i8, ptr %m, i64 16
  %0 = load i32, ptr %m_ref_count.i.i, align 8
  %inc.i.i = add i32 %0, 1
  store i32 %inc.i.i, ptr %m_ref_count.i.i, align 8
  br label %if.end.i

if.end.i:                                         ; preds = %if.then.i, %entry
  %1 = load ptr, ptr %m_model, align 8
  %tobool.not.i.i = icmp eq ptr %1, null
  br i1 %tobool.not.i.i, label %_ZN3refI5modelEaSEPS0_.exit, label %if.then.i.i

if.then.i.i:                                      ; preds = %if.end.i
  %m_ref_count.i.i.i = getelementptr inbounds i8, ptr %1, i64 16
  %2 = load i32, ptr %m_ref_count.i.i.i, align 8
  %dec.i.i.i = add i32 %2, -1
  store i32 %dec.i.i.i, ptr %m_ref_count.i.i.i, align 8
  %cmp.i.i.i = icmp eq i32 %dec.i.i.i, 0
  br i1 %cmp.i.i.i, label %if.then.i.i.i, label %_ZN3refI5modelEaSEPS0_.exit

if.then.i.i.i:                                    ; preds = %if.then.i.i
  %vtable.i.i.i.i = load ptr, ptr %1, align 8
  %3 = load ptr, ptr %vtable.i.i.i.i, align 8
  tail call void %3(ptr noundef nonnull align 8 dereferenceable(96) %1) #15
  tail call void @_ZN6memory10deallocateEPv(ptr noundef nonnull %1)
  br label %_ZN3refI5modelEaSEPS0_.exit

_ZN3refI5modelEaSEPS0_.exit:                      ; preds = %if.end.i, %if.then.i.i, %if.then.i.i.i
  store ptr %m, ptr %m_model, align 8
  ret void
}